(dp0
S'\x83'
p1
I102
sS'\x87'
p2
I106
sS'\x8b'
p3
I110
sS'\x8f'
p4
I114
sS'\x93'
p5
I118
sS'\x97'
p6
I122
sS'\x9b'
p7
I126
sS'\x9f'
p8
I130
sS' '
p9
I4
sS'\xa3'
p10
I134
sS'$'
p11
I8
sS'\xa7'
p12
I138
sS'('
p13
I12
sS'\xab'
p14
I142
sS','
p15
I16
sS'\xaf'
p16
I146
sS'0'
p17
I20
sS'\xb3'
p18
I150
sS'4'
p19
I24
sS'\xb7'
p20
I154
sS'8'
p21
I28
sS'\xbb'
p22
I158
sS'<'
p23
I32
sS'\xbf'
p24
I162
sS'@'
p25
I36
sS'\xc3'
p26
I164
sS'D'
p27
I40
sS'H'
p28
I44
sS'L'
p29
I48
sS'P'
p30
I52
sS'T'
p31
I56
sS'X'
p32
I60
sS'\\'
p33
I64
sS'`'
p34
I68
sS'd'
p35
I72
sS'h'
p36
I76
sS'l'
p37
I80
sS'\xef'
p38
I168
sS'p'
p39
I84
sS't'
p40
I88
sS'x'
p41
I92
sS'|'
p42
I96
sS'\x80'
p43
I99
sS'\x84'
p44
I103
sS'\x88'
p45
I107
sS'\x8c'
p46
I111
sS'\x90'
p47
I115
sS'\x94'
p48
I119
sS'\x98'
p49
I123
sS'\x9c'
p50
I127
sS'\xa0'
p51
I131
sS'#'
p52
I7
sS'\xa4'
p53
I135
sS"'"
p54
I11
sS'\xa8'
p55
I139
sS'+'
p56
I15
sS'\xac'
p57
I143
sS'/'
p58
I19
sS'\xb0'
p59
I147
sS'3'
p60
I23
sS'\xb4'
p61
I151
sS'7'
p62
I27
sS'\xb8'
p63
I155
sS';'
p64
I31
sS'\xbc'
p65
I159
sS'?'
p66
I35
sS'C'
p67
I39
sS'\xc4'
p68
I165
sS'G'
p69
I43
sS'K'
p70
I47
sS'O'
p71
I51
sS'S'
p72
I55
sS'W'
p73
I59
sS'['
p74
I63
sS'_'
p75
I67
sS'c'
p76
I71
sS'g'
p77
I75
sS'k'
p78
I79
sS'o'
p79
I83
sS's'
p80
I87
sS'w'
p81
I91
sS'{'
p82
I95
sS'\x81'
p83
I100
sS'\x85'
p84
I104
sS'\x89'
p85
I108
sS'\n'
p86
I2
sS'\x8d'
p87
I112
sS'\x91'
p88
I116
sS'\x95'
p89
I120
sS'\x99'
p90
I124
sS'\x9d'
p91
I128
sS'\xa1'
p92
I132
sS'"'
p93
I6
sS'\xa5'
p94
I136
sS'&'
p95
I10
sS'\xa9'
p96
I140
sS'*'
p97
I14
sS'\xad'
p98
I144
sS'.'
p99
I18
sS'\xb1'
p100
I148
sS'2'
p101
I22
sS'\xb5'
p102
I152
sS'6'
p103
I26
sS'\xb9'
p104
I156
sS':'
p105
I30
sS'\xbd'
p106
I160
sS'>'
p107
I34
sS'B'
p108
I38
sS'F'
p109
I42
sS'J'
p110
I46
sS'N'
p111
I50
sS'R'
p112
I54
sS'V'
p113
I58
sS'Z'
p114
I62
sS'^'
p115
I66
sS'b'
p116
I70
sS'f'
p117
I74
sS'j'
p118
I78
sS'n'
p119
I82
sS'r'
p120
I86
sS'v'
p121
I90
sS'z'
p122
I94
sS'~'
p123
I98
sS'\x82'
p124
I101
sS'\x86'
p125
I105
sS'\t'
p126
I1
sS'\x8a'
p127
I109
sS'\r'
p128
I3
sS'\x8e'
p129
I113
sS'\x92'
p130
I117
sS'\x96'
p131
I121
sS'\x9a'
p132
I125
sS'\x9e'
p133
I129
sS'!'
p134
I5
sS'\xa2'
p135
I133
sS'%'
p136
I9
sS'\xa6'
p137
I137
sS')'
p138
I13
sS'\xaa'
p139
I141
sS'-'
p140
I17
sS'\xae'
p141
I145
sS'1'
p142
I21
sS'\xb2'
p143
I149
sS'5'
p144
I25
sS'\xb6'
p145
I153
sS'9'
p146
I29
sS'\xba'
p147
I157
sS'='
p148
I33
sS'\xbe'
p149
I161
sS'A'
p150
I37
sS'\xc2'
p151
I163
sS'E'
p152
I41
sS'\xc6'
p153
I166
sS'I'
p154
I45
sS'M'
p155
I49
sS'Q'
p156
I53
sS'U'
p157
I57
sS'Y'
p158
I61
sS']'
p159
I65
sS'a'
p160
I69
sS'\xe2'
p161
I167
sS'e'
p162
I73
sS'i'
p163
I77
sS'm'
p164
I81
sS'q'
p165
I85
sS'u'
p166
I89
sS'y'
p167
I93
sS'}'
p168
I97
s.